target datalayout = "e-m:e-p270:32:32-p271:32:32-p272:64:64-i64:64-i128:128-f80:128-n8:16:32:64-S128"
target triple = "x86_64-pc-linux-gnu"

%struct.opj_jp2 = type { ptr, ptr, ptr, i32, i32, i32, i32, i32, i32, i32, i32, i32, i32, i32, i32, i32, i32, ptr, ptr, i64, i64, i32, i32, i32, %struct.opj_jp2_color, i32, i8, i8 }
%struct.opj_jp2_color = type { ptr, i32, ptr, ptr, i8 }
%struct.opj_jp2_box = type { i32, i32, i32 }
%struct.opj_jp2_header_handler = type { i32, ptr }

@.str.28 = private unnamed_addr constant [38 x i8] c"Cannot handle box of undefined sizes\0A\00", align 1
@.str.38 = private unnamed_addr constant [42 x i8] c"Cannot handle box sizes higher than 2^32\0A\00", align 1
@.str.46 = private unnamed_addr constant [45 x i8] c"The  box must be the first box in the file.\0A\00", align 1
@.str.47 = private unnamed_addr constant [43 x i8] c"Stream error while reading JP2 Header box\0A\00", align 1
@.str.48 = private unnamed_addr constant [72 x i8] c"Stream error while reading JP2 Header box: box length is inconsistent.\0A\00", align 1
@.str.49 = private unnamed_addr constant [59 x i8] c"Stream error while reading JP2 Header box: no 'ihdr' box.\0A\00", align 1
@.str.50 = private unnamed_addr constant [40 x i8] c"Cannot handle box of less than 8 bytes\0A\00", align 1
@.str.51 = private unnamed_addr constant [44 x i8] c"Cannot handle XL box of less than 16 bytes\0A\00", align 1
@.str.52 = private unnamed_addr constant [29 x i8] c"Box length is inconsistent.\0A\00", align 1

; Function Attrs: nounwind uwtable
define internal ptr @opj_jp2_img_find_handler(i32 noundef %0) #0 {
  %2 = alloca ptr, align 8
  %3 = alloca i32, align 4
  %4 = alloca i32, align 4
  %5 = alloca i32, align 4
  %6 = alloca i32, align 4
  store i32 %0, ptr %3, align 4, !tbaa !39
  call void @llvm.lifetime.start.p0(i64 4, ptr %4) #5
  call void @llvm.lifetime.start.p0(i64 4, ptr %5) #5
  store i32 6, ptr %5, align 4, !tbaa !39
  store i32 0, ptr %4, align 4, !tbaa !39
  br label %7

7:                                                ; preds = %24, %1
  %8 = load i32, ptr %4, align 4, !tbaa !39
  %9 = load i32, ptr %5, align 4, !tbaa !39
  %10 = icmp ult i32 %8, %9
  br i1 %10, label %11, label %27

11:                                               ; preds = %7
  %12 = load i32, ptr %4, align 4, !tbaa !39
  %13 = zext i32 %12 to i64
  %14 = getelementptr inbounds nuw [6 x %struct.opj_jp2_header_handler], ptr @jp2_img_header, i64 0, i64 %13
  %15 = getelementptr inbounds nuw %struct.opj_jp2_header_handler, ptr %14, i32 0, i32 0
  %16 = load i32, ptr %15, align 16, !tbaa !162
  %17 = load i32, ptr %3, align 4, !tbaa !39
  %18 = icmp eq i32 %16, %17
  br i1 %18, label %19, label %23

19:                                               ; preds = %11
  %20 = load i32, ptr %4, align 4, !tbaa !39
  %21 = zext i32 %20 to i64
  %22 = getelementptr inbounds nuw [6 x %struct.opj_jp2_header_handler], ptr @jp2_img_header, i64 0, i64 %21
  store ptr %22, ptr %2, align 8
  store i32 1, ptr %6, align 4
  br label %28

23:                                               ; preds = %11
  br label %24

24:                                               ; preds = %23
  %25 = load i32, ptr %4, align 4, !tbaa !39
  %26 = add i32 %25, 1
  store i32 %26, ptr %4, align 4, !tbaa !39
  br label %7, !llvm.loop !164

27:                                               ; preds = %7
  store ptr null, ptr %2, align 8
  store i32 1, ptr %6, align 4
  br label %28

28:                                               ; preds = %27, %19
  call void @llvm.lifetime.end.p0(i64 4, ptr %5) #5
  call void @llvm.lifetime.end.p0(i64 4, ptr %4) #5
  %29 = load ptr, ptr %2, align 8
  ret ptr %29
}

; Function Attrs: nounwind uwtable
define internal i32 @opj_jp2_read_boxhdr_char(ptr noundef %0, ptr noundef %1, ptr noundef %2, i32 noundef %3, ptr noundef %4) #0 {
  %6 = alloca i32, align 4
  %7 = alloca ptr, align 8
  %8 = alloca ptr, align 8
  %9 = alloca ptr, align 8
  %10 = alloca i32, align 4
  %11 = alloca ptr, align 8
  %12 = alloca i32, align 4
  %13 = alloca i32, align 4
  %14 = alloca i32, align 4
  store ptr %0, ptr %7, align 8, !tbaa !160
  store ptr %1, ptr %8, align 8, !tbaa !106
  store ptr %2, ptr %9, align 8, !tbaa !105
  store i32 %3, ptr %10, align 4, !tbaa !39
  store ptr %4, ptr %11, align 8, !tbaa !12
  call void @llvm.lifetime.start.p0(i64 4, ptr %12) #5
  %15 = load i32, ptr %10, align 4, !tbaa !39
  %16 = icmp ult i32 %15, 8
  br i1 %16, label %17, label %20

17:                                               ; preds = %5
  %18 = load ptr, ptr %11, align 8, !tbaa !12
  %19 = call i32 (ptr, i32, ptr, ...) @opj_event_msg(ptr noundef %18, i32 noundef 1, ptr noundef @.str.50)
  store i32 0, ptr %6, align 4
  store i32 1, ptr %13, align 4
  br label %95

20:                                               ; preds = %5
  %21 = load ptr, ptr %8, align 8, !tbaa !106
  call void @opj_read_bytes_LE(ptr noundef %21, ptr noundef %12, i32 noundef 4)
  %22 = load ptr, ptr %8, align 8, !tbaa !106
  %23 = getelementptr inbounds i8, ptr %22, i64 4
  store ptr %23, ptr %8, align 8, !tbaa !106
  %24 = load i32, ptr %12, align 4, !tbaa !39
  %25 = load ptr, ptr %7, align 8, !tbaa !160
  %26 = getelementptr inbounds nuw %struct.opj_jp2_box, ptr %25, i32 0, i32 0
  store i32 %24, ptr %26, align 4, !tbaa !154
  %27 = load ptr, ptr %8, align 8, !tbaa !106
  call void @opj_read_bytes_LE(ptr noundef %27, ptr noundef %12, i32 noundef 4)
  %28 = load ptr, ptr %8, align 8, !tbaa !106
  %29 = getelementptr inbounds i8, ptr %28, i64 4
  store ptr %29, ptr %8, align 8, !tbaa !106
  %30 = load i32, ptr %12, align 4, !tbaa !39
  %31 = load ptr, ptr %7, align 8, !tbaa !160
  %32 = getelementptr inbounds nuw %struct.opj_jp2_box, ptr %31, i32 0, i32 1
  store i32 %30, ptr %32, align 4, !tbaa !151
  %33 = load ptr, ptr %9, align 8, !tbaa !105
  store i32 8, ptr %33, align 4, !tbaa !39
  %34 = load ptr, ptr %7, align 8, !tbaa !160
  %35 = getelementptr inbounds nuw %struct.opj_jp2_box, ptr %34, i32 0, i32 0
  %36 = load i32, ptr %35, align 4, !tbaa !154
  %37 = icmp eq i32 %36, 1
  br i1 %37, label %38, label %75

38:                                               ; preds = %20
  call void @llvm.lifetime.start.p0(i64 4, ptr %14) #5
  %39 = load i32, ptr %10, align 4, !tbaa !39
  %40 = icmp ult i32 %39, 16
  br i1 %40, label %41, label %44

41:                                               ; preds = %38
  %42 = load ptr, ptr %11, align 8, !tbaa !12
  %43 = call i32 (ptr, i32, ptr, ...) @opj_event_msg(ptr noundef %42, i32 noundef 1, ptr noundef @.str.51)
  store i32 0, ptr %6, align 4
  store i32 1, ptr %13, align 4
  br label %72

44:                                               ; preds = %38
  %45 = load ptr, ptr %8, align 8, !tbaa !106
  call void @opj_read_bytes_LE(ptr noundef %45, ptr noundef %14, i32 noundef 4)
  %46 = load ptr, ptr %8, align 8, !tbaa !106
  %47 = getelementptr inbounds i8, ptr %46, i64 4
  store ptr %47, ptr %8, align 8, !tbaa !106
  %48 = load ptr, ptr %9, align 8, !tbaa !105
  %49 = load i32, ptr %48, align 4, !tbaa !39
  %50 = add i32 %49, 4
  store i32 %50, ptr %48, align 4, !tbaa !39
  %51 = load i32, ptr %14, align 4, !tbaa !39
  %52 = icmp ne i32 %51, 0
  br i1 %52, label %53, label %56

53:                                               ; preds = %44
  %54 = load ptr, ptr %11, align 8, !tbaa !12
  %55 = call i32 (ptr, i32, ptr, ...) @opj_event_msg(ptr noundef %54, i32 noundef 1, ptr noundef @.str.38)
  store i32 0, ptr %6, align 4
  store i32 1, ptr %13, align 4
  br label %72

56:                                               ; preds = %44
  %57 = load ptr, ptr %8, align 8, !tbaa !106
  call void @opj_read_bytes_LE(ptr noundef %57, ptr noundef %12, i32 noundef 4)
  %58 = load ptr, ptr %9, align 8, !tbaa !105
  %59 = load i32, ptr %58, align 4, !tbaa !39
  %60 = add i32 %59, 4
  store i32 %60, ptr %58, align 4, !tbaa !39
  %61 = load i32, ptr %12, align 4, !tbaa !39
  %62 = load ptr, ptr %7, align 8, !tbaa !160
  %63 = getelementptr inbounds nuw %struct.opj_jp2_box, ptr %62, i32 0, i32 0
  store i32 %61, ptr %63, align 4, !tbaa !154
  %64 = load ptr, ptr %7, align 8, !tbaa !160
  %65 = getelementptr inbounds nuw %struct.opj_jp2_box, ptr %64, i32 0, i32 0
  %66 = load i32, ptr %65, align 4, !tbaa !154
  %67 = icmp eq i32 %66, 0
  br i1 %67, label %68, label %71

68:                                               ; preds = %56
  %69 = load ptr, ptr %11, align 8, !tbaa !12
  %70 = call i32 (ptr, i32, ptr, ...) @opj_event_msg(ptr noundef %69, i32 noundef 1, ptr noundef @.str.28)
  store i32 0, ptr %6, align 4
  store i32 1, ptr %13, align 4
  br label %72

71:                                               ; preds = %56
  store i32 0, ptr %13, align 4
  br label %72

72:                                               ; preds = %71, %68, %53, %41
  call void @llvm.lifetime.end.p0(i64 4, ptr %14) #5
  %73 = load i32, ptr %13, align 4
  switch i32 %73, label %95 [
    i32 0, label %74
  ]

74:                                               ; preds = %72
  br label %84

75:                                               ; preds = %20
  %76 = load ptr, ptr %7, align 8, !tbaa !160
  %77 = getelementptr inbounds nuw %struct.opj_jp2_box, ptr %76, i32 0, i32 0
  %78 = load i32, ptr %77, align 4, !tbaa !154
  %79 = icmp eq i32 %78, 0
  br i1 %79, label %80, label %83

80:                                               ; preds = %75
  %81 = load ptr, ptr %11, align 8, !tbaa !12
  %82 = call i32 (ptr, i32, ptr, ...) @opj_event_msg(ptr noundef %81, i32 noundef 1, ptr noundef @.str.28)
  store i32 0, ptr %6, align 4
  store i32 1, ptr %13, align 4
  br label %95

83:                                               ; preds = %75
  br label %84

84:                                               ; preds = %83, %74
  %85 = load ptr, ptr %7, align 8, !tbaa !160
  %86 = getelementptr inbounds nuw %struct.opj_jp2_box, ptr %85, i32 0, i32 0
  %87 = load i32, ptr %86, align 4, !tbaa !154
  %88 = load ptr, ptr %9, align 8, !tbaa !105
  %89 = load i32, ptr %88, align 4, !tbaa !39
  %90 = icmp ult i32 %87, %89
  br i1 %90, label %91, label %94

91:                                               ; preds = %84
  %92 = load ptr, ptr %11, align 8, !tbaa !12
  %93 = call i32 (ptr, i32, ptr, ...) @opj_event_msg(ptr noundef %92, i32 noundef 1, ptr noundef @.str.52)
  store i32 0, ptr %6, align 4
  store i32 1, ptr %13, align 4
  br label %95

94:                                               ; preds = %84
  store i32 1, ptr %6, align 4
  store i32 1, ptr %13, align 4
  br label %95

95:                                               ; preds = %94, %91, %80, %72, %17
  call void @llvm.lifetime.end.p0(i64 4, ptr %12) #5
  %96 = load i32, ptr %6, align 4
  ret i32 %96
}

; Function Attrs: nounwind uwtable
define internal i32 @opj_jp2_read_jp2h(ptr noundef %0, ptr noundef %1, i32 noundef %2, ptr noundef %3) #0 {
  %5 = alloca i32, align 4
  %6 = alloca ptr, align 8
  %7 = alloca ptr, align 8
  %8 = alloca i32, align 4
  %9 = alloca ptr, align 8
  %10 = alloca i32, align 4
  %11 = alloca i32, align 4
  %12 = alloca %struct.opj_jp2_box, align 4
  %13 = alloca ptr, align 8
  %14 = alloca i32, align 4
  %15 = alloca i32, align 4
  store ptr %0, ptr %6, align 8, !tbaa !3
  store ptr %1, ptr %7, align 8, !tbaa !106
  store i32 %2, ptr %8, align 4, !tbaa !39
  store ptr %3, ptr %9, align 8, !tbaa !12
  call void @llvm.lifetime.start.p0(i64 4, ptr %10) #5
  store i32 0, ptr %10, align 4, !tbaa !39
  call void @llvm.lifetime.start.p0(i64 4, ptr %11) #5
  store i32 0, ptr %11, align 4, !tbaa !39
  call void @llvm.lifetime.start.p0(i64 12, ptr %12) #5
  call void @llvm.lifetime.start.p0(i64 8, ptr %13) #5
  call void @llvm.lifetime.start.p0(i64 4, ptr %14) #5
  store i32 0, ptr %14, align 4, !tbaa !39
  %16 = load ptr, ptr %6, align 8, !tbaa !3
  %17 = getelementptr inbounds nuw %struct.opj_jp2, ptr %16, i32 0, i32 22
  %18 = load i32, ptr %17, align 4, !tbaa !153
  %19 = and i32 %18, 2
  %20 = icmp ne i32 %19, 2
  br i1 %20, label %21, label %24

21:                                               ; preds = %4
  %22 = load ptr, ptr %9, align 8, !tbaa !12
  %23 = call i32 (ptr, i32, ptr, ...) @opj_event_msg(ptr noundef %22, i32 noundef 1, ptr noundef @.str.46)
  store i32 0, ptr %5, align 4
  store i32 1, ptr %15, align 4
  br label %105

24:                                               ; preds = %4
  %25 = load ptr, ptr %6, align 8, !tbaa !3
  %26 = getelementptr inbounds nuw %struct.opj_jp2, ptr %25, i32 0, i32 23
  store i32 0, ptr %26, align 8, !tbaa !166
  br label %27

27:                                               ; preds = %83, %24
  %28 = load i32, ptr %8, align 4, !tbaa !39
  %29 = icmp ugt i32 %28, 0
  br i1 %29, label %30, label %92

30:                                               ; preds = %27
  %31 = load ptr, ptr %7, align 8, !tbaa !106
  %32 = load i32, ptr %8, align 4, !tbaa !39
  %33 = load ptr, ptr %9, align 8, !tbaa !12
  %34 = call i32 @opj_jp2_read_boxhdr_char(ptr noundef %12, ptr noundef %31, ptr noundef %10, i32 noundef %32, ptr noundef %33)
  %35 = icmp ne i32 %34, 0
  br i1 %35, label %39, label %36

36:                                               ; preds = %30
  %37 = load ptr, ptr %9, align 8, !tbaa !12
  %38 = call i32 (ptr, i32, ptr, ...) @opj_event_msg(ptr noundef %37, i32 noundef 1, ptr noundef @.str.47)
  store i32 0, ptr %5, align 4
  store i32 1, ptr %15, align 4
  br label %105

39:                                               ; preds = %30
  %40 = getelementptr inbounds nuw %struct.opj_jp2_box, ptr %12, i32 0, i32 0
  %41 = load i32, ptr %40, align 4, !tbaa !154
  %42 = load i32, ptr %8, align 4, !tbaa !39
  %43 = icmp ugt i32 %41, %42
  br i1 %43, label %44, label %47

44:                                               ; preds = %39
  %45 = load ptr, ptr %9, align 8, !tbaa !12
  %46 = call i32 (ptr, i32, ptr, ...) @opj_event_msg(ptr noundef %45, i32 noundef 1, ptr noundef @.str.48)
  store i32 0, ptr %5, align 4
  store i32 1, ptr %15, align 4
  br label %105

47:                                               ; preds = %39
  %48 = getelementptr inbounds nuw %struct.opj_jp2_box, ptr %12, i32 0, i32 1
  %49 = load i32, ptr %48, align 4, !tbaa !151
  %50 = call ptr @opj_jp2_img_find_handler(i32 noundef %49)
  store ptr %50, ptr %13, align 8, !tbaa !155
  %51 = getelementptr inbounds nuw %struct.opj_jp2_box, ptr %12, i32 0, i32 0
  %52 = load i32, ptr %51, align 4, !tbaa !154
  %53 = load i32, ptr %10, align 4, !tbaa !39
  %54 = sub i32 %52, %53
  store i32 %54, ptr %11, align 4, !tbaa !39
  %55 = load i32, ptr %10, align 4, !tbaa !39
  %56 = load ptr, ptr %7, align 8, !tbaa !106
  %57 = zext i32 %55 to i64
  %58 = getelementptr inbounds nuw i8, ptr %56, i64 %57
  store ptr %58, ptr %7, align 8, !tbaa !106
  %59 = load ptr, ptr %13, align 8, !tbaa !155
  %60 = icmp ne ptr %59, null
  br i1 %60, label %61, label %73

61:                                               ; preds = %47
  %62 = load ptr, ptr %13, align 8, !tbaa !155
  %63 = getelementptr inbounds nuw %struct.opj_jp2_header_handler, ptr %62, i32 0, i32 1
  %64 = load ptr, ptr %63, align 8, !tbaa !158
  %65 = load ptr, ptr %6, align 8, !tbaa !3
  %66 = load ptr, ptr %7, align 8, !tbaa !106
  %67 = load i32, ptr %11, align 4, !tbaa !39
  %68 = load ptr, ptr %9, align 8, !tbaa !12
  %69 = call i32 %64(ptr noundef %65, ptr noundef %66, i32 noundef %67, ptr noundef %68)
  %70 = icmp ne i32 %69, 0
  br i1 %70, label %72, label %71

71:                                               ; preds = %61
  store i32 0, ptr %5, align 4
  store i32 1, ptr %15, align 4
  br label %105

72:                                               ; preds = %61
  br label %78

73:                                               ; preds = %47
  %74 = load ptr, ptr %6, align 8, !tbaa !3
  %75 = getelementptr inbounds nuw %struct.opj_jp2, ptr %74, i32 0, i32 23
  %76 = load i32, ptr %75, align 8, !tbaa !166
  %77 = or i32 %76, 2147483647
  store i32 %77, ptr %75, align 8, !tbaa !166
  br label %78

78:                                               ; preds = %73, %72
  %79 = getelementptr inbounds nuw %struct.opj_jp2_box, ptr %12, i32 0, i32 1
  %80 = load i32, ptr %79, align 4, !tbaa !151
  %81 = icmp eq i32 %80, 1768449138
  br i1 %81, label %82, label %83

82:                                               ; preds = %78
  store i32 1, ptr %14, align 4, !tbaa !39
  br label %83

83:                                               ; preds = %82, %78
  %84 = load i32, ptr %11, align 4, !tbaa !39
  %85 = load ptr, ptr %7, align 8, !tbaa !106
  %86 = zext i32 %84 to i64
  %87 = getelementptr inbounds nuw i8, ptr %85, i64 %86
  store ptr %87, ptr %7, align 8, !tbaa !106
  %88 = getelementptr inbounds nuw %struct.opj_jp2_box, ptr %12, i32 0, i32 0
  %89 = load i32, ptr %88, align 4, !tbaa !154
  %90 = load i32, ptr %8, align 4, !tbaa !39
  %91 = sub i32 %90, %89
  store i32 %91, ptr %8, align 4, !tbaa !39
  br label %27, !llvm.loop !167

92:                                               ; preds = %27
  %93 = load i32, ptr %14, align 4, !tbaa !39
  %94 = icmp eq i32 %93, 0
  br i1 %94, label %95, label %98

95:                                               ; preds = %92
  %96 = load ptr, ptr %9, align 8, !tbaa !12
  %97 = call i32 (ptr, i32, ptr, ...) @opj_event_msg(ptr noundef %96, i32 noundef 1, ptr noundef @.str.49)
  store i32 0, ptr %5, align 4
  store i32 1, ptr %15, align 4
  br label %105

98:                                               ; preds = %92
  %99 = load ptr, ptr %6, align 8, !tbaa !3
  %100 = getelementptr inbounds nuw %struct.opj_jp2, ptr %99, i32 0, i32 22
  %101 = load i32, ptr %100, align 4, !tbaa !153
  %102 = or i32 %101, 4
  store i32 %102, ptr %100, align 4, !tbaa !153
  %103 = load ptr, ptr %6, align 8, !tbaa !3
  %104 = getelementptr inbounds nuw %struct.opj_jp2, ptr %103, i32 0, i32 26
  store i8 1, ptr %104, align 4, !tbaa !100
  store i32 1, ptr %5, align 4
  store i32 1, ptr %15, align 4
  br label %105

105:                                              ; preds = %98, %95, %71, %44, %36, %21
  call void @llvm.lifetime.end.p0(i64 4, ptr %14) #5
  call void @llvm.lifetime.end.p0(i64 8, ptr %13) #5
  call void @llvm.lifetime.end.p0(i64 12, ptr %12) #5
  call void @llvm.lifetime.end.p0(i64 4, ptr %11) #5
  call void @llvm.lifetime.end.p0(i64 4, ptr %10) #5
  %106 = load i32, ptr %5, align 4
  ret i32 %106
}