; Function Attrs: nounwind uwtable
define internal range(i32 0, 2) i32 @opj_jp2_read_jp2h(ptr noundef %0, ptr noundef %1, i32 noundef %2, ptr noundef %3) #0 {
  %5 = alloca i32, align 4
  %6 = alloca i32, align 4
  %7 = getelementptr inbounds nuw i8, ptr %0, i64 116
  %8 = load i32, ptr %7, align 4, !tbaa !125
  %9 = and i32 %8, 2
  %.not.not = icmp eq i32 %9, 0
  br i1 %.not.not, label %10, label %12

10:                                               ; preds = %4
  %11 = tail call i32 (ptr, i32, ptr, ...) @opj_event_msg(ptr noundef %3, i32 noundef 1, ptr noundef nonnull @.str.46) #6
  br label %.loopexit

12:                                               ; preds = %4
  %13 = getelementptr inbounds nuw i8, ptr %0, i64 120
  store i32 0, ptr %13, align 8, !tbaa !133
  %.not54 = icmp eq i32 %2, 0
  br i1 %.not54, label %._crit_edge.thread, label %.lr.ph

.lr.ph:                                           ; preds = %12, %60
  %.057 = phi i32 [ %spec.select, %60 ], [ 0, %12 ]
  %.02656 = phi ptr [ %66, %60 ], [ %1, %12 ]
  %.02755 = phi i32 [ %67, %60 ], [ %2, %12 ]
  call void @llvm.lifetime.start.p0(i64 4, ptr nonnull %5) #6
  %14 = icmp ult i32 %.02755, 8
  br i1 %14, label %15, label %17

15:                                               ; preds = %.lr.ph
  %16 = call i32 (ptr, i32, ptr, ...) @opj_event_msg(ptr noundef %3, i32 noundef 1, ptr noundef nonnull @.str.50) #6
  br label %38

17:                                               ; preds = %.lr.ph
  call void @opj_read_bytes_LE(ptr noundef %.02656, ptr noundef nonnull %5, i32 noundef 4) #6
  %18 = getelementptr inbounds nuw i8, ptr %.02656, i64 4
  %19 = load i32, ptr %5, align 4, !tbaa !46
  call void @opj_read_bytes_LE(ptr noundef nonnull %18, ptr noundef nonnull %5, i32 noundef 4) #6
  %20 = getelementptr inbounds nuw i8, ptr %.02656, i64 8
  %21 = load i32, ptr %5, align 4, !tbaa !46
  switch i32 %19, label %33 [
    i32 1, label %22
    i32 0, label %31
  ]

22:                                               ; preds = %17
  call void @llvm.lifetime.start.p0(i64 4, ptr nonnull %6) #6
  %23 = icmp ult i32 %.02755, 16
  br i1 %23, label %.critedge.i, label %24

24:                                               ; preds = %22
  call void @opj_read_bytes_LE(ptr noundef nonnull %20, ptr noundef nonnull %6, i32 noundef 4) #6
  %25 = load i32, ptr %6, align 4, !tbaa !46
  %.not.i = icmp eq i32 %25, 0
  br i1 %.not.i, label %26, label %.critedge.i

26:                                               ; preds = %24
  %27 = getelementptr inbounds nuw i8, ptr %.02656, i64 12
  call void @opj_read_bytes_LE(ptr noundef nonnull %27, ptr noundef nonnull %5, i32 noundef 4) #6
  %28 = load i32, ptr %5, align 4, !tbaa !46
  %29 = icmp eq i32 %28, 0
  br i1 %29, label %.critedge.i, label %30

30:                                               ; preds = %26
  call void @llvm.lifetime.end.p0(i64 4, ptr nonnull %6) #6
  br label %33

31:                                               ; preds = %17
  %32 = call i32 (ptr, i32, ptr, ...) @opj_event_msg(ptr noundef %3, i32 noundef 1, ptr noundef nonnull @.str.28) #6
  br label %38

33:                                               ; preds = %30, %17
  %.2 = phi i32 [ 8, %17 ], [ 16, %30 ]
  %.sroa.0.2 = phi i32 [ %19, %17 ], [ %28, %30 ]
  %34 = icmp ult i32 %.sroa.0.2, %.2
  br i1 %34, label %35, label %40

35:                                               ; preds = %33
  %36 = call i32 (ptr, i32, ptr, ...) @opj_event_msg(ptr noundef %3, i32 noundef 1, ptr noundef nonnull @.str.52) #6
  br label %38

.critedge.i:                                      ; preds = %26, %24, %22
  %.str.28.sink.i = phi ptr [ @.str.51, %22 ], [ @.str.38, %24 ], [ @.str.28, %26 ]
  %37 = call i32 (ptr, i32, ptr, ...) @opj_event_msg(ptr noundef %3, i32 noundef 1, ptr noundef nonnull %.str.28.sink.i) #6
  call void @llvm.lifetime.end.p0(i64 4, ptr nonnull %6) #6
  br label %38

38:                                               ; preds = %15, %35, %31, %.critedge.i
  call void @llvm.lifetime.end.p0(i64 4, ptr nonnull %5) #6
  %39 = call i32 (ptr, i32, ptr, ...) @opj_event_msg(ptr noundef %3, i32 noundef 1, ptr noundef nonnull @.str.47) #6
  br label %.loopexit

40:                                               ; preds = %33
  call void @llvm.lifetime.end.p0(i64 4, ptr nonnull %5) #6
  %41 = icmp ugt i32 %.sroa.0.2, %.02755
  br i1 %41, label %42, label %.preheader

42:                                               ; preds = %40
  %43 = call i32 (ptr, i32, ptr, ...) @opj_event_msg(ptr noundef %3, i32 noundef 1, ptr noundef nonnull @.str.48) #6
  br label %.loopexit

44:                                               ; preds = %.preheader
  %indvars.iv.next.i = add nuw nsw i64 %indvars.iv.i, 1
  %exitcond.not.i = icmp eq i64 %indvars.iv.next.i, 6
  br i1 %exitcond.not.i, label %55, label %.preheader, !llvm.loop !129

.preheader:                                       ; preds = %40, %44
  %indvars.iv.i = phi i64 [ %indvars.iv.next.i, %44 ], [ 0, %40 ]
  %45 = getelementptr inbounds nuw [6 x %struct.opj_jp2_header_handler], ptr @jp2_img_header, i64 0, i64 %indvars.iv.i
  %46 = load i32, ptr %45, align 16, !tbaa !127
  %47 = icmp eq i32 %46, %21
  br i1 %47, label %48, label %44

48:                                               ; preds = %.preheader
  %49 = sub i32 %.sroa.0.2, %.2
  %50 = zext nneg i32 %.2 to i64
  %51 = getelementptr inbounds nuw i8, ptr %.02656, i64 %50
  %52 = getelementptr inbounds nuw i8, ptr %45, i64 8
  %53 = load ptr, ptr %52, align 8, !tbaa !131
  %54 = call i32 %53(ptr noundef %0, ptr noundef nonnull %51, i32 noundef %49, ptr noundef %3) #6
  %.not31 = icmp eq i32 %54, 0
  br i1 %.not31, label %.loopexit, label %60

55:                                               ; preds = %44
  %56 = sub i32 %.sroa.0.2, %.2
  %57 = zext nneg i32 %.2 to i64
  %58 = load i32, ptr %13, align 8, !tbaa !133
  %59 = or i32 %58, 2147483647
  store i32 %59, ptr %13, align 8, !tbaa !133
  br label %60

60:                                               ; preds = %48, %55
  %61 = phi i64 [ %50, %48 ], [ %57, %55 ]
  %62 = phi i32 [ %49, %48 ], [ %56, %55 ]
  %63 = getelementptr inbounds nuw i8, ptr %.02656, i64 %61
  %64 = icmp eq i32 %21, 1768449138
  %spec.select = select i1 %64, i32 1, i32 %.057
  %65 = zext i32 %62 to i64
  %66 = getelementptr inbounds nuw i8, ptr %63, i64 %65
  %67 = sub i32 %.02755, %.sroa.0.2
  %.not = icmp eq i32 %67, 0
  br i1 %.not, label %._crit_edge, label %.lr.ph, !llvm.loop !134

._crit_edge:                                      ; preds = %60
  %68 = icmp eq i32 %spec.select, 0
  br i1 %68, label %._crit_edge.thread, label %70

._crit_edge.thread:                               ; preds = %12, %._crit_edge
  %69 = call i32 (ptr, i32, ptr, ...) @opj_event_msg(ptr noundef %3, i32 noundef 1, ptr noundef nonnull @.str.49) #6
  br label %.loopexit

70:                                               ; preds = %._crit_edge
  %71 = load i32, ptr %7, align 4, !tbaa !125
  %72 = or i32 %71, 4
  store i32 %72, ptr %7, align 4, !tbaa !125
  %73 = getelementptr inbounds nuw i8, ptr %0, i64 172
  store i8 1, ptr %73, align 4, !tbaa !114
  br label %.loopexit

.loopexit:                                        ; preds = %48, %70, %._crit_edge.thread, %42, %38, %10
  %.025 = phi i32 [ 0, %10 ], [ 0, %42 ], [ 0, %38 ], [ 0, %._crit_edge.thread ], [ 1, %70 ], [ 0, %48 ]
  ret i32 %.025
}